; Function Attrs: mustprogress uwtable
define hidden void @_ZN2cv4face18FacemarkKazemiImpl15createSplitNodeERNS0_7regtreeENS0_6splitrEl(ptr noundef nonnull readnone align 8 captures(none) dereferenceable(216) %0, ptr noundef nonnull readonly align 8 captures(none) dereferenceable(24) %1, ptr noundef readonly byval(%"struct.cv::face::splitr") align 8 captures(none) %2, i64 noundef %3) local_unnamed_addr #7 align 2 personality ptr @__gxx_personality_v0 {
_ZNSt6vectorIN2cv6Point_IfEESaIS2_EE5clearEv.exit:
  %4 = alloca %"struct.cv::face::tree_node", align 8
  call void @llvm.lifetime.start.p0(i64 48, ptr nonnull %4) #22
  %5 = getelementptr inbounds nuw i8, ptr %4, i64 24
  call void @llvm.memset.p0.i64(ptr noundef nonnull align 8 dereferenceable(24) %5, i8 0, i64 24, i1 false)
  call void @llvm.memcpy.p0.p0.i64(ptr noundef nonnull align 8 dereferenceable(24) %4, ptr noundef nonnull align 8 dereferenceable(24) %2, i64 24, i1 false), !tbaa.struct !67
  %6 = load ptr, ptr %1, align 8, !tbaa !99
  %7 = getelementptr inbounds nuw %"struct.cv::face::tree_node", ptr %6, i64 %3
  call void @llvm.memcpy.p0.p0.i64(ptr noundef nonnull align 8 dereferenceable(24) %7, ptr noundef nonnull align 8 dereferenceable(24) %2, i64 24, i1 false)
  %8 = getelementptr inbounds nuw i8, ptr %7, i64 24
  %9 = invoke noundef nonnull align 8 dereferenceable(24) ptr @_ZNSt6vectorIN2cv6Point_IfEESaIS2_EEaSERKS4_(ptr noundef nonnull align 8 dereferenceable(24) %8, ptr noundef nonnull align 8 dereferenceable(24) %5)
          to label %_ZN2cv4face9tree_nodeaSERKS1_.exit unwind label %12

_ZN2cv4face9tree_nodeaSERKS1_.exit:               ; preds = %_ZNSt6vectorIN2cv6Point_IfEESaIS2_EE5clearEv.exit
  %10 = load ptr, ptr %5, align 8, !tbaa !32
  %.not.i.i.i.i = icmp eq ptr %10, null
  br i1 %.not.i.i.i.i, label %_ZN2cv4face9tree_nodeD2Ev.exit, label %11

11:                                               ; preds = %_ZN2cv4face9tree_nodeaSERKS1_.exit
  call void @_ZdlPv(ptr noundef nonnull %10) #24
  br label %_ZN2cv4face9tree_nodeD2Ev.exit

_ZN2cv4face9tree_nodeD2Ev.exit:                   ; preds = %_ZN2cv4face9tree_nodeaSERKS1_.exit, %11
  call void @llvm.lifetime.end.p0(i64 48, ptr nonnull %4) #22
  ret void

12:                                               ; preds = %_ZNSt6vectorIN2cv6Point_IfEESaIS2_EE5clearEv.exit
  %13 = landingpad { ptr, i32 }
          cleanup
  %14 = load ptr, ptr %5, align 8, !tbaa !32
  %.not.i.i.i.i3 = icmp eq ptr %14, null
  br i1 %.not.i.i.i.i3, label %_ZN2cv4face9tree_nodeD2Ev.exit4, label %15

15:                                               ; preds = %12
  call void @_ZdlPv(ptr noundef nonnull %14) #24
  br label %_ZN2cv4face9tree_nodeD2Ev.exit4

_ZN2cv4face9tree_nodeD2Ev.exit4:                  ; preds = %12, %15
  call void @llvm.lifetime.end.p0(i64 48, ptr nonnull %4) #22
  resume { ptr, i32 } %13
}